; Function Attrs: nounwind uwtable
define internal void @_message_func_dispatch25(ptr readnone captures(none) %0, ptr noundef %1, ptr readnone captures(none) %2) #0 {
  %4 = load i32, ptr getelementptr inbounds nuw (i8, ptr @darktable, i64 8), align 8, !tbaa !19
  %5 = and i32 %4, 32
  %.not = icmp eq i32 %5, 0
  br i1 %.not, label %7, label %6

6:                                                ; preds = %3
  tail call void (ptr, ...) @dt_print_ext(ptr noundef nonnull @.str.47, ptr noundef %1) #15
  br label %7

7:                                                ; preds = %3, %6
  ret void
}